target datalayout = "e-m:e-p270:32:32-p271:32:32-p272:64:64-i64:64-i128:128-f80:128-n8:16:32:64-S128"
target triple = "x86_64-pc-linux-gnu"

%struct.GraphLockableMainloop = type {}
%struct.StrOrNull = type { i32, %union.anon.22 }
%union.anon.22 = type { ptr }

@.str.1 = private unnamed_addr constant [19 x i8] c"../qemu/blockdev.c\00", align 1
@.str.123 = private unnamed_addr constant [40 x i8] c"Failed to find node with node-name='%s'\00", align 1
@__func__.qmp_x_blockdev_set_iothread = private unnamed_addr constant [28 x i8] c"qmp_x_blockdev_set_iothread\00", align 1
@.str.132 = private unnamed_addr constant [102 x i8] c"Node %s is associated with a BlockBackend and could be in use (use force=true to override this check)\00", align 1
@.str.133 = private unnamed_addr constant [24 x i8] c"Cannot find iothread %s\00", align 1

; Function Attrs: inlinehint nounwind sspstrong uwtable
define internal void @graph_lockable_auto_unlock_mainloop(ptr noundef %0) #5 {
  %2 = alloca ptr, align 8
  store ptr %0, ptr %2, align 8
  call void @bdrv_graph_rdunlock_main_loop()
  ret void
}

; Function Attrs: inlinehint nounwind sspstrong uwtable
define internal void @glib_autoptr_clear_GraphLockableMainloop(ptr noundef %0) #5 {
  %2 = alloca ptr, align 8
  store ptr %0, ptr %2, align 8
  %3 = load ptr, ptr %2, align 8
  %4 = icmp ne ptr %3, null
  br i1 %4, label %5, label %7

5:                                                ; preds = %1
  %6 = load ptr, ptr %2, align 8
  call void @graph_lockable_auto_unlock_mainloop(ptr noundef %6)
  br label %7

7:                                                ; preds = %5, %1
  ret void
}

; Function Attrs: inlinehint nounwind sspstrong uwtable
define internal void @glib_autoptr_cleanup_GraphLockableMainloop(ptr noundef %0) #5 {
  %2 = alloca ptr, align 8
  store ptr %0, ptr %2, align 8
  %3 = load ptr, ptr %2, align 8
  %4 = load ptr, ptr %3, align 8
  call void @glib_autoptr_clear_GraphLockableMainloop(ptr noundef %4)
  ret void
}

; Function Attrs: inlinehint nounwind sspstrong uwtable
define internal ptr @graph_lockable_auto_lock_mainloop(ptr noundef %0) #5 {
  %2 = alloca ptr, align 8
  store ptr %0, ptr %2, align 8
  call void @bdrv_graph_rdlock_main_loop()
  %3 = load ptr, ptr %2, align 8
  ret ptr %3
}

; Function Attrs: nounwind sspstrong uwtable
define dso_local void @qmp_x_blockdev_set_iothread(ptr noundef %0, ptr noundef %1, i1 noundef zeroext %2, i1 noundef zeroext %3, ptr noundef %4) #0 {
  %6 = alloca ptr, align 8
  %7 = alloca ptr, align 8
  %8 = alloca i8, align 1
  %9 = alloca i8, align 1
  %10 = alloca ptr, align 8
  %11 = alloca ptr, align 8
  %12 = alloca ptr, align 8
  %13 = alloca ptr, align 8
  %14 = alloca %struct.GraphLockableMainloop, align 1
  %15 = alloca i32, align 4
  %16 = alloca ptr, align 8
  store ptr %0, ptr %6, align 8
  store ptr %1, ptr %7, align 8
  %17 = zext i1 %2 to i8
  store i8 %17, ptr %8, align 1
  %18 = zext i1 %3 to i8
  store i8 %18, ptr %9, align 1
  store ptr %4, ptr %10, align 8
  call void @llvm.lifetime.start.p0(i64 8, ptr %11) #16
  store ptr null, ptr %11, align 8, !annotation !4
  call void @llvm.lifetime.start.p0(i64 8, ptr %12) #16
  store ptr null, ptr %12, align 8, !annotation !4
  call void @llvm.lifetime.start.p0(i64 8, ptr %13) #16
  %19 = call ptr @graph_lockable_auto_lock_mainloop(ptr noundef %14)
  store ptr %19, ptr %13, align 8
  %20 = load ptr, ptr %6, align 8
  %21 = call ptr @bdrv_find_node(ptr noundef %20)
  store ptr %21, ptr %12, align 8
  %22 = load ptr, ptr %12, align 8
  %23 = icmp ne ptr %22, null
  br i1 %23, label %27, label %24

24:                                               ; preds = %5
  %25 = load ptr, ptr %10, align 8
  %26 = load ptr, ptr %6, align 8
  call void (ptr, ptr, i32, ptr, ptr, ...) @error_setg_internal(ptr noundef %25, ptr noundef @.str.1, i32 noundef 3600, ptr noundef @__func__.qmp_x_blockdev_set_iothread, ptr noundef @.str.123, ptr noundef %26)
  store i32 1, ptr %15, align 4
  br label %69

27:                                               ; preds = %5
  %28 = load i8, ptr %8, align 1, !range !7, !noundef !8
  %29 = trunc i8 %28 to i1
  br i1 %29, label %30, label %33

30:                                               ; preds = %27
  %31 = load i8, ptr %9, align 1, !range !7, !noundef !8
  %32 = trunc i8 %31 to i1
  br i1 %32, label %39, label %33

33:                                               ; preds = %30, %27
  %34 = load ptr, ptr %12, align 8
  %35 = call zeroext i1 @bdrv_has_blk(ptr noundef %34)
  br i1 %35, label %36, label %39

36:                                               ; preds = %33
  %37 = load ptr, ptr %10, align 8
  %38 = load ptr, ptr %6, align 8
  call void (ptr, ptr, i32, ptr, ptr, ...) @error_setg_internal(ptr noundef %37, ptr noundef @.str.1, i32 noundef 3608, ptr noundef @__func__.qmp_x_blockdev_set_iothread, ptr noundef @.str.132, ptr noundef %38)
  store i32 1, ptr %15, align 4
  br label %69

39:                                               ; preds = %33, %30
  %40 = load ptr, ptr %7, align 8
  %41 = getelementptr inbounds nuw %struct.StrOrNull, ptr %40, i32 0, i32 0
  %42 = load i32, ptr %41, align 8
  %43 = icmp eq i32 %42, 3
  br i1 %43, label %44, label %62

44:                                               ; preds = %39
  call void @llvm.lifetime.start.p0(i64 8, ptr %16) #16
  %45 = load ptr, ptr %7, align 8
  %46 = getelementptr inbounds nuw %struct.StrOrNull, ptr %45, i32 0, i32 1
  %47 = load ptr, ptr %46, align 8
  %48 = call ptr @iothread_by_id(ptr noundef %47)
  store ptr %48, ptr %16, align 8
  %49 = load ptr, ptr %16, align 8
  %50 = icmp ne ptr %49, null
  br i1 %50, label %56, label %51

51:                                               ; preds = %44
  %52 = load ptr, ptr %10, align 8
  %53 = load ptr, ptr %7, align 8
  %54 = getelementptr inbounds nuw %struct.StrOrNull, ptr %53, i32 0, i32 1
  %55 = load ptr, ptr %54, align 8
  call void (ptr, ptr, i32, ptr, ptr, ...) @error_setg_internal(ptr noundef %52, ptr noundef @.str.1, i32 noundef 3615, ptr noundef @__func__.qmp_x_blockdev_set_iothread, ptr noundef @.str.133, ptr noundef %55)
  store i32 1, ptr %15, align 4
  br label %59

56:                                               ; preds = %44
  %57 = load ptr, ptr %16, align 8
  %58 = call ptr @iothread_get_aio_context(ptr noundef %57)
  store ptr %58, ptr %11, align 8
  store i32 0, ptr %15, align 4
  br label %59

59:                                               ; preds = %56, %51
  call void @llvm.lifetime.end.p0(i64 8, ptr %16) #16
  %60 = load i32, ptr %15, align 4
  switch i32 %60, label %69 [
    i32 0, label %61
  ]

61:                                               ; preds = %59
  br label %64

62:                                               ; preds = %39
  %63 = call ptr @qemu_get_aio_context()
  store ptr %63, ptr %11, align 8
  br label %64

64:                                               ; preds = %62, %61
  %65 = load ptr, ptr %12, align 8
  %66 = load ptr, ptr %11, align 8
  %67 = load ptr, ptr %10, align 8
  %68 = call i32 @bdrv_try_change_aio_context(ptr noundef %65, ptr noundef %66, ptr noundef null, ptr noundef %67)
  store i32 0, ptr %15, align 4
  br label %69

69:                                               ; preds = %64, %59, %36, %24
  call void @glib_autoptr_cleanup_GraphLockableMainloop(ptr noundef %13)
  call void @llvm.lifetime.end.p0(i64 8, ptr %13) #16
  call void @llvm.lifetime.end.p0(i64 8, ptr %12) #16
  call void @llvm.lifetime.end.p0(i64 8, ptr %11) #16
  %70 = load i32, ptr %15, align 4
  switch i32 %70, label %72 [
    i32 0, label %71
    i32 1, label %71
  ]

71:                                               ; preds = %69, %69
  ret void

72:                                               ; preds = %69
  unreachable
}