; Function Attrs: nounwind sspstrong uwtable
define dso_local void @qmp_x_blockdev_set_iothread(ptr noundef %0, ptr noundef readonly captures(none) %1, i1 noundef zeroext %2, i1 noundef zeroext %3, ptr noundef %4) local_unnamed_addr #0 {
  tail call void @bdrv_graph_rdlock_main_loop() #14
  %6 = tail call ptr @bdrv_find_node(ptr noundef %0) #14
  %.not = icmp eq ptr %6, null
  br i1 %.not, label %7, label %8

7:                                                ; preds = %5
  tail call void (ptr, ptr, i32, ptr, ptr, ...) @error_setg_internal(ptr noundef %4, ptr noundef nonnull @.str.1, i32 noundef 3600, ptr noundef nonnull @__func__.qmp_x_blockdev_set_iothread, ptr noundef nonnull @.str.123, ptr noundef %0) #14
  br label %glib_autoptr_cleanup_GraphLockableMainloop.exit

8:                                                ; preds = %5
  %brmerge.demorgan = and i1 %2, %3
  br i1 %brmerge.demorgan, label %12, label %9

9:                                                ; preds = %8
  %10 = tail call zeroext i1 @bdrv_has_blk(ptr noundef nonnull %6) #14
  br i1 %10, label %11, label %12

11:                                               ; preds = %9
  tail call void (ptr, ptr, i32, ptr, ptr, ...) @error_setg_internal(ptr noundef %4, ptr noundef nonnull @.str.1, i32 noundef 3608, ptr noundef nonnull @__func__.qmp_x_blockdev_set_iothread, ptr noundef nonnull @.str.132, ptr noundef %0) #14
  br label %glib_autoptr_cleanup_GraphLockableMainloop.exit

12:                                               ; preds = %8, %9
  %13 = load i32, ptr %1, align 8
  %14 = icmp eq i32 %13, 3
  br i1 %14, label %15, label %22

15:                                               ; preds = %12
  %16 = getelementptr inbounds nuw i8, ptr %1, i64 8
  %17 = load ptr, ptr %16, align 8
  %18 = tail call ptr @iothread_by_id(ptr noundef %17) #14
  %.not21.not = icmp eq ptr %18, null
  br i1 %.not21.not, label %.thread, label %20

.thread:                                          ; preds = %15
  %19 = load ptr, ptr %16, align 8
  tail call void (ptr, ptr, i32, ptr, ptr, ...) @error_setg_internal(ptr noundef %4, ptr noundef nonnull @.str.1, i32 noundef 3615, ptr noundef nonnull @__func__.qmp_x_blockdev_set_iothread, ptr noundef nonnull @.str.133, ptr noundef %19) #14
  br label %glib_autoptr_cleanup_GraphLockableMainloop.exit

20:                                               ; preds = %15
  %21 = tail call ptr @iothread_get_aio_context(ptr noundef nonnull %18) #14
  br label %24

22:                                               ; preds = %12
  %23 = tail call ptr @qemu_get_aio_context() #14
  br label %24

24:                                               ; preds = %20, %22
  %.1 = phi ptr [ %21, %20 ], [ %23, %22 ]
  %25 = tail call i32 @bdrv_try_change_aio_context(ptr noundef nonnull %6, ptr noundef %.1, ptr noundef null, ptr noundef %4) #14
  br label %glib_autoptr_cleanup_GraphLockableMainloop.exit

glib_autoptr_cleanup_GraphLockableMainloop.exit:  ; preds = %.thread, %24, %11, %7
  tail call void @bdrv_graph_rdunlock_main_loop() #14
  ret void
}